; Function Attrs: nounwind uwtable
define internal i32 @testbuf_getbuf(ptr noundef %0, ptr noundef %1, i32 noundef %2) #0 {
  %4 = getelementptr inbounds nuw i8, ptr %0, i64 16
  %5 = load ptr, ptr %4, align 8, !tbaa !3
  %6 = tail call i32 @PyObject_GetBuffer(ptr noundef %5, ptr noundef %1, i32 noundef %2) #3
  %7 = icmp eq i32 %6, 0
  br i1 %7, label %8, label %23

8:                                                ; preds = %3
  %9 = getelementptr inbounds nuw i8, ptr %1, i64 8
  %10 = load ptr, ptr %9, align 8, !tbaa !23
  %11 = load i32, ptr %0, align 8, !tbaa !12
  %12 = icmp slt i32 %11, 0
  br i1 %12, label %_Py_NewRef.exit, label %13

13:                                               ; preds = %8
  %14 = add nuw i32 %11, 1
  store i32 %14, ptr %0, align 8, !tbaa !12
  br label %_Py_NewRef.exit

_Py_NewRef.exit:                                  ; preds = %8, %13
  store ptr %0, ptr %9, align 8, !tbaa !23
  %15 = load i32, ptr %10, align 8, !tbaa !12
  %.not.i = icmp sgt i32 %15, -1
  br i1 %.not.i, label %16, label %Py_DECREF.exit

16:                                               ; preds = %_Py_NewRef.exit
  %17 = add nsw i32 %15, -1
  store i32 %17, ptr %10, align 8, !tbaa !12
  %18 = icmp eq i32 %17, 0
  br i1 %18, label %19, label %Py_DECREF.exit

19:                                               ; preds = %16
  tail call void @_Py_Dealloc(ptr noundef nonnull %10) #3
  br label %Py_DECREF.exit

Py_DECREF.exit:                                   ; preds = %_Py_NewRef.exit, %16, %19
  %20 = getelementptr inbounds nuw i8, ptr %0, i64 24
  %21 = load i64, ptr %20, align 8, !tbaa !25
  %22 = add i64 %21, 1
  store i64 %22, ptr %20, align 8, !tbaa !25
  br label %23

23:                                               ; preds = %Py_DECREF.exit, %3
  ret i32 %6
}